; ModuleID = '/home/xxx/.local/share/compiler_gym/llvm-v0/benchmark/tensorflow-v0/contents/tensorflow-v0/1440.bc'
source_filename = "/private/var/tmp/_bazel_alicej/3199bd51534d8a6b34bddaa1def27039/external/swig/Source/Modules/nested.cxx"
target datalayout = "e-m:o-p270:32:32-p271:32:32-p272:64:64-i64:64-f80:128-n8:16:32:64-S128"
target triple = "x86_64-apple-ios11.2.0"

%struct.__sFILE = type { i8*, i32, i32, i16, i16, %struct.__sbuf, i32, i8*, i32 (i8*)*, i32 (i8*, i8*, i32)*, i64 (i8*, i64, i32)*, i32 (i8*, i8*, i32)*, %struct.__sbuf, %struct.__sFILEX*, i32, [3 x i8], [1 x i8], %struct.__sbuf, i32, i64 }
%struct.__sFILEX = type opaque
%struct.__sbuf = type { i8*, i32 }
%class.Language = type { %class.Dispatcher.base, i8*, i8*, i8*, i32, i32, i8*, i8*, i8*, i32, i32, i32, i32 }
%class.Dispatcher.base = type <{ i32 (...)**, i32 }>

@_ZL9classhash = internal unnamed_addr global i8* null, align 8
@.str = private unnamed_addr constant [8 x i8] c"classes\00", align 1
@.str.1 = private unnamed_addr constant [11 x i8] c"firstChild\00", align 1
@.str.2 = private unnamed_addr constant [12 x i8] c"nextSibling\00", align 1
@.str.3 = private unnamed_addr constant [15 x i8] c"nested:unnamed\00", align 1
@.str.4 = private unnamed_addr constant [13 x i8] c"nested:outer\00", align 1
@.str.5 = private unnamed_addr constant [6 x i8] c"%s_%s\00", align 1
@.str.6 = private unnamed_addr constant [5 x i8] c"name\00", align 1
@.str.7 = private unnamed_addr constant [7 x i8] c"tdname\00", align 1
@.str.8 = private unnamed_addr constant [7 x i8] c"symtab\00", align 1
@.str.9 = private unnamed_addr constant [9 x i8] c"baselist\00", align 1
@.str.10 = private unnamed_addr constant [19 x i8] c"nested:unnamedtype\00", align 1
@.str.11 = private unnamed_addr constant [5 x i8] c"type\00", align 1
@.str.12 = private unnamed_addr constant [18 x i8] c"feature:immutable\00", align 1
@.str.13 = private unnamed_addr constant [15 x i8] c"feature:ignore\00", align 1
@cparse_cplusplusout = external local_unnamed_addr global i32, align 4
@.str.14 = private unnamed_addr constant [13 x i8] c"templatetype\00", align 1
@.str.15 = private unnamed_addr constant [7 x i8] c"nested\00", align 1
@.str.16 = private unnamed_addr constant [19 x i8] c"feature:flatnested\00", align 1
@.str.17 = private unnamed_addr constant [7 x i8] c"access\00", align 1
@.str.18 = private unnamed_addr constant [7 x i8] c"public\00", align 1
@.str.19 = private unnamed_addr constant [9 x i8] c"nodeType\00", align 1
@.str.20 = private unnamed_addr constant [7 x i8] c"extend\00", align 1
@.str.21 = private unnamed_addr constant [11 x i8] c"parentNode\00", align 1
@.str.22 = private unnamed_addr constant [6 x i8] c"class\00", align 1
@.str.23 = private unnamed_addr constant [6 x i8] c"cdecl\00", align 1
@.str.24 = private unnamed_addr constant [9 x i8] c"ismember\00", align 1
@.str.25 = private unnamed_addr constant [2 x i8] c"1\00", align 1
@.str.26 = private unnamed_addr constant [9 x i8] c"sym:name\00", align 1
@.str.27 = private unnamed_addr constant [5 x i8] c"decl\00", align 1
@.str.28 = private unnamed_addr constant [16 x i8] c"parser:makename\00", align 1
@.str.29 = private unnamed_addr constant [8 x i8] c"storage\00", align 1
@.str.30 = private unnamed_addr constant [8 x i8] c"typedef\00", align 1
@.str.31 = private unnamed_addr constant [5 x i8] c"kind\00", align 1
@.str.32 = private unnamed_addr constant [6 x i8] c"value\00", align 1
@.str.33 = private unnamed_addr constant [9 x i8] c"variable\00", align 1
@.str.34 = private unnamed_addr constant [9 x i8] c"hasvalue\00", align 1
@.str.35 = private unnamed_addr constant [13 x i8] c"hasconsttype\00", align 1
@__stderrp = external local_unnamed_addr global %struct.__sFILE*, align 8
@.str.36 = private unnamed_addr constant [16 x i8] c"notype name %s\0A\00", align 1
@.str.37 = private unnamed_addr constant [8 x i8] c"unnamed\00", align 1
@.str.38 = private unnamed_addr constant [9 x i8] c"function\00", align 1
@.str.39 = private unnamed_addr constant [8 x i8] c"$ignore\00", align 1
@.str.40 = private unnamed_addr constant [19 x i8] c"feature:warnfilter\00", align 1
@.str.41 = private unnamed_addr constant [4 x i8] c"%s\0A\00", align 1
@.str.42 = private unnamed_addr constant [15 x i8] c"already_warned\00", align 1
@.str.43 = private unnamed_addr constant [9 x i8] c"sym:weak\00", align 1
@.str.44 = private unnamed_addr constant [36 x i8] c"Identifier '%s' redefined (ignored)\00", align 1
@.str.45 = private unnamed_addr constant [28 x i8] c"previous definition of '%s'\00", align 1
@.str.46 = private unnamed_addr constant [32 x i8] c"Redundant redeclaration of '%s'\00", align 1
@.str.47 = private unnamed_addr constant [29 x i8] c"previous declaration of '%s'\00", align 1
@.str.48 = private unnamed_addr constant [21 x i8] c" (Renamed from '%s')\00", align 1
@.str.49 = private unnamed_addr constant [2 x i8] c",\00", align 1
@.str.50 = private unnamed_addr constant [2 x i8] c".\00", align 1
@.str.51 = private unnamed_addr constant [19 x i8] c"%s:%d:%s\0A%s:%d:%s\0A\00", align 1
@.str.52 = private unnamed_addr constant [6 x i8] c"error\00", align 1
@.str.53 = private unnamed_addr constant [13 x i8] c"class_rename\00", align 1
@.str.54 = private unnamed_addr constant [2 x i8] c"~\00", align 1
@.str.55 = private unnamed_addr constant [5 x i8] c"code\00", align 1
@.str.56 = private unnamed_addr constant [2 x i8] c" \00", align 1
@.str.57 = private unnamed_addr constant [9 x i8] c"typedef \00", align 1
@.str.58 = private unnamed_addr constant [2 x i8] c";\00", align 1
@.str.59 = private unnamed_addr constant [7 x i8] c"struct\00", align 1
@.str.60 = private unnamed_addr constant [6 x i8] c"union\00", align 1
@.str.61 = private unnamed_addr constant [10 x i8] c"%constant\00", align 1
@.str.62 = private unnamed_addr constant [7 x i8] c"insert\00", align 1
@.str.63 = private unnamed_addr constant [10 x i8] c"lastChild\00", align 1
@.str.64 = private unnamed_addr constant [16 x i8] c"previousSibling\00", align 1

; Function Attrs: ssp uwtable
define void @_Z34Swig_nested_name_unnamed_c_structsPv(i8* %0) local_unnamed_addr #0 {
  %2 = icmp eq i8* %0, null
  br i1 %2, label %90, label %3

3:                                                ; preds = %1
  %4 = load i8*, i8** @_ZL9classhash, align 8, !tbaa !2
  %5 = icmp eq i8* %4, null
  br i1 %5, label %6, label %8

6:                                                ; preds = %3
  %7 = tail call i8* @DohGetattr(i8* nonnull %0, i8* getelementptr inbounds ([8 x i8], [8 x i8]* @.str, i64 0, i64 0))
  store i8* %7, i8** @_ZL9classhash, align 8, !tbaa !2
  br label %8

8:                                                ; preds = %6, %3
  %9 = tail call i8* @DohGetattr(i8* nonnull %0, i8* getelementptr inbounds ([11 x i8], [11 x i8]* @.str.1, i64 0, i64 0))
  %10 = icmp eq i8* %9, null
  br i1 %10, label %90, label %11

11:                                               ; preds = %8
  br label %13

12:                                               ; preds = %62
  br label %86

13:                                               ; preds = %86, %11
  %14 = phi i8* [ %9, %11 ], [ %87, %86 ]
  %15 = tail call i8* @DohGetattr(i8* nonnull %14, i8* getelementptr inbounds ([12 x i8], [12 x i8]* @.str.2, i64 0, i64 0))
  %16 = tail call i8* @DohGetattr(i8* nonnull %14, i8* getelementptr inbounds ([15 x i8], [15 x i8]* @.str.3, i64 0, i64 0))
  %17 = icmp eq i8* %16, null
  br i1 %17, label %75, label %18

18:                                               ; preds = %13
  %19 = tail call i8* @DohGetattr(i8* nonnull %14, i8* getelementptr inbounds ([13 x i8], [13 x i8]* @.str.4, i64 0, i64 0))
  %20 = icmp eq i8* %19, null
  br i1 %20, label %59, label %21

21:                                               ; preds = %18
  %22 = tail call i8* @DohGetattr(i8* nonnull %19, i8* getelementptr inbounds ([5 x i8], [5 x i8]* @.str.6, i64 0, i64 0))
  %23 = tail call i8* (i8*, ...) @DohNewStringf(i8* getelementptr inbounds ([6 x i8], [6 x i8]* @.str.5, i64 0, i64 0), i8* %22, i8* nonnull %16)
  %24 = tail call i32 @DohDelattr(i8* nonnull %14, i8* getelementptr inbounds ([15 x i8], [15 x i8]* @.str.3, i64 0, i64 0))
  %25 = tail call i32 @DohSetattr(i8* nonnull %14, i8* getelementptr inbounds ([7 x i8], [7 x i8]* @.str.7, i64 0, i64 0), i8* %23)
  %26 = tail call i32 @DohSetattr(i8* nonnull %14, i8* getelementptr inbounds ([5 x i8], [5 x i8]* @.str.6, i64 0, i64 0), i8* %23)
  %27 = tail call i8* @DohGetattr(i8* nonnull %14, i8* getelementptr inbounds ([7 x i8], [7 x i8]* @.str.8, i64 0, i64 0))
  %28 = tail call i8* @Swig_symbol_setscope(i8* %27)
  tail call void @Swig_symbol_setscopename(i8* %23)
  %29 = tail call i8* @DohGetattr(i8* nonnull %14, i8* getelementptr inbounds ([9 x i8], [9 x i8]* @.str.9, i64 0, i64 0))
  %30 = icmp eq i8* %29, null
  br i1 %30, label %33, label %31

31:                                               ; preds = %21
  %32 = tail call i8* @Swig_make_inherit_list(i8* %23, i8* nonnull %29, i8* null)
  tail call void @Swig_inherit_base_symbols(i8* %32)
  tail call void @DohDelete(i8* %32)
  br label %33

33:                                               ; preds = %31, %21
  %34 = load i8*, i8** @_ZL9classhash, align 8, !tbaa !2
  %35 = tail call i32 @DohSetattr(i8* %34, i8* %23, i8* %14)
  %36 = tail call i8* @Swig_extend_hash()
  %37 = tail call i8* @DohGetattr(i8* %36, i8* %23)
  %38 = icmp eq i8* %37, null
  br i1 %38, label %42, label %39

39:                                               ; preds = %33
  tail call void @Swig_extend_merge(i8* %14, i8* nonnull %37)
  tail call void @Swig_extend_append_previous(i8* %14, i8* nonnull %37)
  %40 = tail call i8* @Swig_extend_hash()
  %41 = tail call i32 @DohDelattr(i8* %40, i8* %23)
  br label %42

42:                                               ; preds = %39, %33
  %43 = tail call i8* @Swig_symbol_popscope()
  %44 = tail call i8* @DohCopy(i8* %23)
  %45 = tail call i8* @DohGetattr(i8* %14, i8* getelementptr inbounds ([12 x i8], [12 x i8]* @.str.2, i64 0, i64 0))
  %46 = tail call i8* @DohNewList()
  %47 = icmp eq i8* %45, null
  br i1 %47, label %70, label %48

48:                                               ; preds = %42
  br label %49

49:                                               ; preds = %53, %48
  %50 = phi i8* [ %57, %53 ], [ %45, %48 ]
  %51 = tail call i8* @DohGetattr(i8* nonnull %50, i8* getelementptr inbounds ([19 x i8], [19 x i8]* @.str.10, i64 0, i64 0))
  %52 = icmp eq i8* %51, %14
  br i1 %52, label %53, label %69

53:                                               ; preds = %49
  %54 = tail call i32 @DohSetattr(i8* nonnull %50, i8* getelementptr inbounds ([5 x i8], [5 x i8]* @.str.11, i64 0, i64 0), i8* %44)
  %55 = tail call i32 @DohInsertitem(i8* %46, i32 -2, i8* nonnull %50)
  %56 = tail call i32 @DohDelattr(i8* nonnull %50, i8* getelementptr inbounds ([19 x i8], [19 x i8]* @.str.10, i64 0, i64 0))
  tail call void @DohSetFlag(i8* nonnull %50, i8* getelementptr inbounds ([18 x i8], [18 x i8]* @.str.12, i64 0, i64 0))
  tail call fastcc void @_ZL13add_symbols_cPv(i8* nonnull %50)
  %57 = tail call i8* @DohGetattr(i8* nonnull %50, i8* getelementptr inbounds ([12 x i8], [12 x i8]* @.str.2, i64 0, i64 0))
  %58 = icmp eq i8* %57, null
  br i1 %58, label %69, label %49

59:                                               ; preds = %18
  tail call void @DohSetFlag(i8* nonnull %14, i8* getelementptr inbounds ([15 x i8], [15 x i8]* @.str.13, i64 0, i64 0))
  %60 = icmp eq i8* %15, null
  br i1 %60, label %89, label %61

61:                                               ; preds = %59
  br label %62

62:                                               ; preds = %66, %61
  %63 = phi i8* [ %67, %66 ], [ %15, %61 ]
  %64 = tail call i8* @DohGetattr(i8* nonnull %63, i8* getelementptr inbounds ([19 x i8], [19 x i8]* @.str.10, i64 0, i64 0))
  %65 = icmp eq i8* %64, %14
  br i1 %65, label %66, label %12

66:                                               ; preds = %62
  tail call void @DohSetFlag(i8* nonnull %63, i8* getelementptr inbounds ([15 x i8], [15 x i8]* @.str.13, i64 0, i64 0))
  %67 = tail call i8* @DohGetattr(i8* nonnull %63, i8* getelementptr inbounds ([12 x i8], [12 x i8]* @.str.2, i64 0, i64 0))
  %68 = icmp eq i8* %67, null
  br i1 %68, label %88, label %62

69:                                               ; preds = %53, %49
  br label %70

70:                                               ; preds = %69, %42
  tail call void @DohDelete(i8* %44)
  %71 = tail call i8* @Swig_symbol_global_scope()
  %72 = tail call i8* @Swig_symbol_setscope(i8* %71)
  tail call fastcc void @_ZL13add_symbols_cPv(i8* %14)
  %73 = tail call fastcc i8* @_ZL13create_insertPvb(i8* %14, i1 zeroext false)
  tail call fastcc void @_ZL15insertNodeAfterPvS_(i8* %14, i8* %73)
  tail call void @removeNode(i8* %14)
  tail call fastcc void @_ZL15insertNodeAfterPvS_(i8* nonnull %0, i8* %14)
  tail call void @DohDelete(i8* %73)
  %74 = tail call i32 @DohDelattr(i8* %14, i8* getelementptr inbounds ([13 x i8], [13 x i8]* @.str.4, i64 0, i64 0))
  br label %84

75:                                               ; preds = %13
  %76 = load i32, i32* @cparse_cplusplusout, align 4, !tbaa !6
  %77 = icmp eq i32 %76, 0
  br i1 %77, label %84, label %78

78:                                               ; preds = %75
  %79 = tail call i8* @DohGetattr(i8* nonnull %14, i8* getelementptr inbounds ([13 x i8], [13 x i8]* @.str.4, i64 0, i64 0))
  %80 = icmp eq i8* %79, null
  br i1 %80, label %84, label %81

81:                                               ; preds = %78
  %82 = tail call fastcc i8* @_ZL13create_insertPvb(i8* nonnull %14, i1 zeroext true)
  tail call fastcc void @_ZL15insertNodeAfterPvS_(i8* nonnull %14, i8* %82)
  tail call void @DohDelete(i8* %82)
  %83 = tail call i32 @DohDelattr(i8* nonnull %14, i8* getelementptr inbounds ([13 x i8], [13 x i8]* @.str.4, i64 0, i64 0))
  br label %84

84:                                               ; preds = %81, %78, %75, %70
  tail call void @_Z34Swig_nested_name_unnamed_c_structsPv(i8* %14)
  %85 = icmp eq i8* %15, null
  br i1 %85, label %89, label %86

86:                                               ; preds = %84, %12
  %87 = phi i8* [ %15, %84 ], [ %63, %12 ]
  br label %13

88:                                               ; preds = %66
  br label %90

89:                                               ; preds = %84, %59
  br label %90

90:                                               ; preds = %89, %88, %8, %1
  ret void
}

declare i8* @DohGetattr(i8*, i8*) local_unnamed_addr #1

declare i8* @DohNewStringf(i8*, ...) local_unnamed_addr #1

declare i32 @DohDelattr(i8*, i8*) local_unnamed_addr #1

declare i32 @DohSetattr(i8*, i8*, i8*) local_unnamed_addr #1

declare i8* @Swig_symbol_setscope(i8*) local_unnamed_addr #1

declare void @Swig_symbol_setscopename(i8*) local_unnamed_addr #1

declare i8* @Swig_make_inherit_list(i8*, i8*, i8*) local_unnamed_addr #1

declare void @Swig_inherit_base_symbols(i8*) local_unnamed_addr #1

declare void @DohDelete(i8*) local_unnamed_addr #1

declare i8* @Swig_extend_hash() local_unnamed_addr #1

declare void @Swig_extend_merge(i8*, i8*) local_unnamed_addr #1

declare void @Swig_extend_append_previous(i8*, i8*) local_unnamed_addr #1

declare i8* @Swig_symbol_popscope() local_unnamed_addr #1

declare i8* @DohCopy(i8*) local_unnamed_addr #1

declare i8* @DohNewList() local_unnamed_addr #1

declare i32 @DohInsertitem(i8*, i32, i8*) local_unnamed_addr #1

declare void @DohSetFlag(i8*, i8*) local_unnamed_addr #1

; Function Attrs: ssp uwtable
define internal fastcc void @_ZL13add_symbols_cPv(i8* %0) unnamed_addr #0 {
  %2 = tail call i8* @DohGetattr(i8* %0, i8* getelementptr inbounds ([9 x i8], [9 x i8]* @.str.19, i64 0, i64 0))
  %3 = tail call i32 @DohCmp(i8* %2, i8* getelementptr inbounds ([6 x i8], [6 x i8]* @.str.23, i64 0, i64 0))
  %4 = icmp eq i32 %3, 0
  %5 = tail call i32 @DohSetattr(i8* %0, i8* getelementptr inbounds ([9 x i8], [9 x i8]* @.str.24, i64 0, i64 0), i8* getelementptr inbounds ([2 x i8], [2 x i8]* @.str.25, i64 0, i64 0))
  %6 = tail call i32 @DohSetattr(i8* %0, i8* getelementptr inbounds ([7 x i8], [7 x i8]* @.str.17, i64 0, i64 0), i8* getelementptr inbounds ([7 x i8], [7 x i8]* @.str.18, i64 0, i64 0))
  %7 = tail call i8* @DohGetattr(i8* %0, i8* getelementptr inbounds ([9 x i8], [9 x i8]* @.str.26, i64 0, i64 0))
  %8 = icmp eq i8* %7, null
  br i1 %8, label %9, label %195

9:                                                ; preds = %1
  %10 = tail call i8* @DohGetattr(i8* %0, i8* getelementptr inbounds ([5 x i8], [5 x i8]* @.str.27, i64 0, i64 0))
  %11 = tail call i32 @SwigType_isfunction(i8* %10)
  %12 = icmp eq i32 %11, 0
  %13 = tail call i8* @DohGetattr(i8* %0, i8* getelementptr inbounds ([5 x i8], [5 x i8]* @.str.6, i64 0, i64 0))
  br i1 %12, label %14, label %68

14:                                               ; preds = %9
  %15 = tail call i8* @DohGetattr(i8* %0, i8* getelementptr inbounds ([16 x i8], [16 x i8]* @.str.28, i64 0, i64 0))
  br i1 %4, label %16, label %50

16:                                               ; preds = %14
  %17 = tail call i8* @DohGetattr(i8* %0, i8* getelementptr inbounds ([8 x i8], [8 x i8]* @.str.29, i64 0, i64 0))
  %18 = tail call i32 @DohCmp(i8* %17, i8* getelementptr inbounds ([8 x i8], [8 x i8]* @.str.30, i64 0, i64 0))
  %19 = icmp eq i32 %18, 0
  br i1 %19, label %20, label %22

20:                                               ; preds = %16
  %21 = tail call i32 @DohSetattr(i8* %0, i8* getelementptr inbounds ([5 x i8], [5 x i8]* @.str.31, i64 0, i64 0), i8* getelementptr inbounds ([8 x i8], [8 x i8]* @.str.30, i64 0, i64 0))
  br label %50

22:                                               ; preds = %16
  %23 = tail call i8* @DohGetattr(i8* %0, i8* getelementptr inbounds ([5 x i8], [5 x i8]* @.str.11, i64 0, i64 0))
  %24 = tail call i8* @DohGetattr(i8* %0, i8* getelementptr inbounds ([6 x i8], [6 x i8]* @.str.32, i64 0, i64 0))
  %25 = tail call i32 @DohSetattr(i8* %0, i8* getelementptr inbounds ([5 x i8], [5 x i8]* @.str.31, i64 0, i64 0), i8* getelementptr inbounds ([9 x i8], [9 x i8]* @.str.33, i64 0, i64 0))
  %26 = icmp eq i8* %24, null
  br i1 %26, label %32, label %27

27:                                               ; preds = %22
  %28 = tail call i32 @DohLen(i8* nonnull %24)
  %29 = icmp eq i32 %28, 0
  br i1 %29, label %32, label %30

30:                                               ; preds = %27
  %31 = tail call i32 @DohSetattr(i8* %0, i8* getelementptr inbounds ([9 x i8], [9 x i8]* @.str.34, i64 0, i64 0), i8* getelementptr inbounds ([2 x i8], [2 x i8]* @.str.25, i64 0, i64 0))
  br label %32

32:                                               ; preds = %30, %27, %22
  %33 = icmp eq i8* %23, null
  br i1 %33, label %47, label %34

34:                                               ; preds = %32
  %35 = icmp eq i8* %10, null
  br i1 %35, label %38, label %36

36:                                               ; preds = %34
  %37 = tail call i8* @DohCopy(i8* nonnull %23)
  tail call void @SwigType_push(i8* %37, i8* nonnull %10)
  br label %38

38:                                               ; preds = %36, %34
  %39 = phi i8* [ %37, %36 ], [ null, %34 ]
  %40 = phi i8* [ %37, %36 ], [ %23, %34 ]
  %41 = tail call i32 @SwigType_ismutable(i8* %40)
  %42 = icmp eq i32 %41, 0
  br i1 %42, label %43, label %44

43:                                               ; preds = %38
  tail call void @DohSetFlag(i8* %0, i8* getelementptr inbounds ([13 x i8], [13 x i8]* @.str.35, i64 0, i64 0))
  tail call void @DohSetFlag(i8* %0, i8* getelementptr inbounds ([18 x i8], [18 x i8]* @.str.12, i64 0, i64 0))
  br label %44

44:                                               ; preds = %43, %38
  %45 = icmp eq i8* %39, null
  br i1 %45, label %50, label %46

46:                                               ; preds = %44
  tail call void @DohDelete(i8* nonnull %39)
  br label %50

47:                                               ; preds = %32
  %48 = load i8*, i8** bitcast (%struct.__sFILE** @__stderrp to i8**), align 8, !tbaa !2
  %49 = tail call i32 (i8*, i8*, ...) @DohPrintf(i8* %48, i8* getelementptr inbounds ([16 x i8], [16 x i8]* @.str.36, i64 0, i64 0), i8* %13)
  br label %50

50:                                               ; preds = %47, %46, %44, %20, %14
  %51 = tail call i8* @Swig_cparse_features()
  tail call void @Swig_features_get(i8* %51, i8* null, i8* %13, i8* null, i8* %0)
  %52 = icmp eq i8* %15, null
  br i1 %52, label %56, label %53

53:                                               ; preds = %50
  %54 = tail call fastcc i8* @_ZL9make_namePvS_S_(i8* %0, i8* nonnull %15, i8* null)
  %55 = tail call i32 @DohDelattr(i8* %0, i8* getelementptr inbounds ([16 x i8], [16 x i8]* @.str.28, i64 0, i64 0))
  br label %58

56:                                               ; preds = %50
  %57 = tail call fastcc i8* @_ZL9make_namePvS_S_(i8* %0, i8* %13, i8* null)
  br label %58

58:                                               ; preds = %56, %53
  %59 = phi i8* [ %54, %53 ], [ %57, %56 ]
  %60 = icmp eq i8* %59, null
  br i1 %60, label %61, label %65

61:                                               ; preds = %58
  %62 = tail call i8* @DohGetattr(i8* %0, i8* getelementptr inbounds ([8 x i8], [8 x i8]* @.str.37, i64 0, i64 0))
  %63 = tail call i8* @DohCopy(i8* %62)
  %64 = icmp eq i8* %63, null
  br i1 %64, label %195, label %65

65:                                               ; preds = %61, %58
  %66 = phi i8* [ %63, %61 ], [ %59, %58 ]
  %67 = tail call i8* @Swig_name_warning(i8* %0, i8* null, i8* nonnull %66, i8* null)
  br label %78

68:                                               ; preds = %9
  %69 = tail call i8* @DohCopy(i8* %10)
  %70 = tail call i8* @SwigType_pop_function(i8* %69)
  br i1 %4, label %71, label %73

71:                                               ; preds = %68
  %72 = tail call i32 @DohSetattr(i8* %0, i8* getelementptr inbounds ([5 x i8], [5 x i8]* @.str.31, i64 0, i64 0), i8* getelementptr inbounds ([9 x i8], [9 x i8]* @.str.38, i64 0, i64 0))
  br label %73

73:                                               ; preds = %71, %68
  %74 = tail call i8* @Swig_cparse_features()
  tail call void @Swig_features_get(i8* %74, i8* null, i8* %13, i8* %70, i8* %0)
  %75 = tail call fastcc i8* @_ZL9make_namePvS_S_(i8* %0, i8* %13, i8* %70)
  %76 = tail call i8* @Swig_name_warning(i8* %0, i8* null, i8* %75, i8* %70)
  tail call void @DohDelete(i8* %69)
  tail call void @DohDelete(i8* %70)
  %77 = icmp eq i8* %75, null
  br i1 %77, label %195, label %78

78:                                               ; preds = %73, %65
  %79 = phi i8* [ %67, %65 ], [ %76, %73 ]
  %80 = phi i8* [ %66, %65 ], [ %75, %73 ]
  %81 = tail call i32 @DohGetFlag(i8* %0, i8* getelementptr inbounds ([15 x i8], [15 x i8]* @.str.13, i64 0, i64 0))
  %82 = icmp eq i32 %81, 0
  br i1 %82, label %85, label %83

83:                                               ; preds = %78
  %84 = tail call i8* @Swig_symbol_add(i8* null, i8* %0)
  br label %194

85:                                               ; preds = %78
  %86 = tail call i8* @DohData(i8* nonnull %80)
  %87 = tail call i32 @strncmp(i8* %86, i8* getelementptr inbounds ([8 x i8], [8 x i8]* @.str.39, i64 0, i64 0), i64 7)
  %88 = icmp eq i32 %87, 0
  br i1 %88, label %89, label %109

89:                                               ; preds = %85
  %90 = tail call i8* @DohData(i8* nonnull %80)
  %91 = getelementptr inbounds i8, i8* %90, i64 7
  tail call void @DohSetFlag(i8* %0, i8* getelementptr inbounds ([15 x i8], [15 x i8]* @.str.13, i64 0, i64 0))
  %92 = tail call i64 @strlen(i8* %91)
  %93 = icmp eq i64 %92, 0
  br i1 %93, label %107, label %94

94:                                               ; preds = %89
  %95 = icmp eq i8* %0, null
  br i1 %95, label %103, label %96

96:                                               ; preds = %94
  %97 = tail call i8* @DohGetattr(i8* nonnull %0, i8* getelementptr inbounds ([19 x i8], [19 x i8]* @.str.40, i64 0, i64 0))
  %98 = icmp eq i8* %97, null
  br i1 %98, label %103, label %99

99:                                               ; preds = %96
  tail call void @Swig_warnfilter(i8* nonnull %97, i32 1)
  %100 = tail call i8* @DohGetfile(i8* nonnull %0)
  %101 = tail call i32 @DohGetline(i8* nonnull %0)
  %102 = getelementptr inbounds i8, i8* %90, i64 8
  tail call void (i32, i8*, i32, i8*, ...) @Swig_warning(i32 0, i8* %100, i32 %101, i8* getelementptr inbounds ([4 x i8], [4 x i8]* @.str.41, i64 0, i64 0), i8* %102)
  tail call void @Swig_warnfilter(i8* nonnull %97, i32 0)
  br label %107

103:                                              ; preds = %96, %94
  %104 = tail call i8* @DohGetfile(i8* %0)
  %105 = tail call i32 @DohGetline(i8* %0)
  %106 = getelementptr inbounds i8, i8* %90, i64 8
  tail call void (i32, i8*, i32, i8*, ...) @Swig_warning(i32 0, i8* %104, i32 %105, i8* getelementptr inbounds ([4 x i8], [4 x i8]* @.str.41, i64 0, i64 0), i8* %106)
  br label %107

107:                                              ; preds = %103, %99, %89
  %108 = tail call i8* @Swig_symbol_add(i8* null, i8* %0)
  br label %194

109:                                              ; preds = %85
  %110 = icmp eq i8* %79, null
  br i1 %110, label %130, label %111

111:                                              ; preds = %109
  %112 = tail call i32 @DohLen(i8* nonnull %79)
  %113 = icmp eq i32 %112, 0
  br i1 %113, label %130, label %114

114:                                              ; preds = %111
  %115 = tail call i8* @DohGetmeta(i8* nonnull %80, i8* getelementptr inbounds ([15 x i8], [15 x i8]* @.str.42, i64 0, i64 0))
  %116 = icmp eq i8* %115, null
  br i1 %116, label %117, label %130

117:                                              ; preds = %114
  %118 = icmp eq i8* %0, null
  br i1 %118, label %125, label %119

119:                                              ; preds = %117
  %120 = tail call i8* @DohGetattr(i8* nonnull %0, i8* getelementptr inbounds ([19 x i8], [19 x i8]* @.str.40, i64 0, i64 0))
  %121 = icmp eq i8* %120, null
  br i1 %121, label %125, label %122

122:                                              ; preds = %119
  tail call void @Swig_warnfilter(i8* nonnull %120, i32 1)
  %123 = tail call i8* @DohGetfile(i8* nonnull %0)
  %124 = tail call i32 @DohGetline(i8* nonnull %0)
  tail call void (i32, i8*, i32, i8*, ...) @Swig_warning(i32 0, i8* %123, i32 %124, i8* getelementptr inbounds ([4 x i8], [4 x i8]* @.str.41, i64 0, i64 0), i8* nonnull %79)
  tail call void @Swig_warnfilter(i8* nonnull %120, i32 0)
  br label %128

125:                                              ; preds = %119, %117
  %126 = tail call i8* @DohGetfile(i8* %0)
  %127 = tail call i32 @DohGetline(i8* %0)
  tail call void (i32, i8*, i32, i8*, ...) @Swig_warning(i32 0, i8* %126, i32 %127, i8* getelementptr inbounds ([4 x i8], [4 x i8]* @.str.41, i64 0, i64 0), i8* nonnull %79)
  br label %128

128:                                              ; preds = %125, %122
  %129 = tail call i32 @DohSetmeta(i8* nonnull %80, i8* getelementptr inbounds ([15 x i8], [15 x i8]* @.str.42, i64 0, i64 0), i8* getelementptr inbounds ([2 x i8], [2 x i8]* @.str.25, i64 0, i64 0))
  br label %130

130:                                              ; preds = %128, %114, %111, %109
  %131 = tail call i8* @Swig_symbol_add(i8* nonnull %80, i8* %0)
  %132 = icmp eq i8* %131, %0
  br i1 %132, label %194, label %133

133:                                              ; preds = %130
  %134 = tail call i8* @DohGetattr(i8* %0, i8* getelementptr inbounds ([9 x i8], [9 x i8]* @.str.43, i64 0, i64 0))
  %135 = icmp eq i8* %134, null
  br i1 %135, label %138, label %136

136:                                              ; preds = %133
  %137 = tail call i32 @DohSetattr(i8* %0, i8* getelementptr inbounds ([9 x i8], [9 x i8]* @.str.26, i64 0, i64 0), i8* nonnull %80)
  br label %194

138:                                              ; preds = %133
  %139 = tail call i8* @DohNewStringEmpty()
  %140 = tail call i8* @DohNewStringEmpty()
  %141 = tail call i8* @DohNewStringEmpty()
  %142 = tail call i32 @Swig_need_redefined_warn(i8* %0, i8* %131, i32 1)
  %143 = icmp ne i32 %142, 0
  br i1 %143, label %144, label %147

144:                                              ; preds = %138
  %145 = tail call i32 (i8*, i8*, ...) @DohPrintf(i8* %140, i8* getelementptr inbounds ([36 x i8], [36 x i8]* @.str.44, i64 0, i64 0), i8* nonnull %80)
  %146 = tail call i32 (i8*, i8*, ...) @DohPrintf(i8* %141, i8* getelementptr inbounds ([28 x i8], [28 x i8]* @.str.45, i64 0, i64 0), i8* nonnull %80)
  br label %150

147:                                              ; preds = %138
  %148 = tail call i32 (i8*, i8*, ...) @DohPrintf(i8* %140, i8* getelementptr inbounds ([32 x i8], [32 x i8]* @.str.46, i64 0, i64 0), i8* nonnull %80)
  %149 = tail call i32 (i8*, i8*, ...) @DohPrintf(i8* %141, i8* getelementptr inbounds ([29 x i8], [29 x i8]* @.str.47, i64 0, i64 0), i8* nonnull %80)
  br label %150

150:                                              ; preds = %147, %144
  %151 = tail call i8* @DohGetattr(i8* %0, i8* getelementptr inbounds ([5 x i8], [5 x i8]* @.str.6, i64 0, i64 0))
  %152 = tail call i32 @DohCmp(i8* nonnull %80, i8* %151)
  %153 = icmp eq i32 %152, 0
  br i1 %153, label %158, label %154

154:                                              ; preds = %150
  %155 = tail call i8* @DohGetattr(i8* %0, i8* getelementptr inbounds ([5 x i8], [5 x i8]* @.str.6, i64 0, i64 0))
  %156 = tail call i8* @SwigType_namestr(i8* %155)
  %157 = tail call i32 (i8*, i8*, ...) @DohPrintf(i8* %140, i8* getelementptr inbounds ([21 x i8], [21 x i8]* @.str.48, i64 0, i64 0), i8* %156)
  br label %158

158:                                              ; preds = %154, %150
  %159 = tail call i32 (i8*, i8*, ...) @DohPrintf(i8* %140, i8* getelementptr inbounds ([2 x i8], [2 x i8]* @.str.49, i64 0, i64 0))
  %160 = tail call i8* @DohGetattr(i8* %131, i8* getelementptr inbounds ([5 x i8], [5 x i8]* @.str.6, i64 0, i64 0))
  %161 = tail call i32 @DohCmp(i8* nonnull %80, i8* %160)
  %162 = icmp eq i32 %161, 0
  br i1 %162, label %167, label %163

163:                                              ; preds = %158
  %164 = tail call i8* @DohGetattr(i8* %131, i8* getelementptr inbounds ([5 x i8], [5 x i8]* @.str.6, i64 0, i64 0))
  %165 = tail call i8* @SwigType_namestr(i8* %164)
  %166 = tail call i32 (i8*, i8*, ...) @DohPrintf(i8* %141, i8* getelementptr inbounds ([21 x i8], [21 x i8]* @.str.48, i64 0, i64 0), i8* %165)
  br label %167

167:                                              ; preds = %163, %158
  %168 = tail call i32 (i8*, i8*, ...) @DohPrintf(i8* %141, i8* getelementptr inbounds ([2 x i8], [2 x i8]* @.str.50, i64 0, i64 0))
  %169 = icmp eq i8* %0, null
  br i1 %169, label %174, label %170

170:                                              ; preds = %167
  %171 = tail call i8* @DohGetattr(i8* nonnull %0, i8* getelementptr inbounds ([19 x i8], [19 x i8]* @.str.40, i64 0, i64 0))
  %172 = icmp eq i8* %171, null
  br i1 %172, label %174, label %173

173:                                              ; preds = %170
  tail call void @Swig_warnfilter(i8* nonnull %171, i32 1)
  br label %174

174:                                              ; preds = %173, %170, %167
  %175 = phi i1 [ true, %173 ], [ false, %170 ], [ false, %167 ]
  %176 = phi i8* [ %171, %173 ], [ null, %170 ], [ null, %167 ]
  %177 = tail call i8* @DohGetfile(i8* %0)
  %178 = tail call i32 @DohGetline(i8* %0)
  br i1 %143, label %179, label %182

179:                                              ; preds = %174
  tail call void (i32, i8*, i32, i8*, ...) @Swig_warning(i32 302, i8* %177, i32 %178, i8* getelementptr inbounds ([4 x i8], [4 x i8]* @.str.41, i64 0, i64 0), i8* %140)
  %180 = tail call i8* @DohGetfile(i8* %131)
  %181 = tail call i32 @DohGetline(i8* %131)
  tail call void (i32, i8*, i32, i8*, ...) @Swig_warning(i32 302, i8* %180, i32 %181, i8* getelementptr inbounds ([4 x i8], [4 x i8]* @.str.41, i64 0, i64 0), i8* %141)
  br label %185

182:                                              ; preds = %174
  tail call void (i32, i8*, i32, i8*, ...) @Swig_warning(i32 322, i8* %177, i32 %178, i8* getelementptr inbounds ([4 x i8], [4 x i8]* @.str.41, i64 0, i64 0), i8* %140)
  %183 = tail call i8* @DohGetfile(i8* %131)
  %184 = tail call i32 @DohGetline(i8* %131)
  tail call void (i32, i8*, i32, i8*, ...) @Swig_warning(i32 322, i8* %183, i32 %184, i8* getelementptr inbounds ([4 x i8], [4 x i8]* @.str.41, i64 0, i64 0), i8* %141)
  br label %185

185:                                              ; preds = %182, %179
  br i1 %175, label %186, label %187

186:                                              ; preds = %185
  tail call void @Swig_warnfilter(i8* nonnull %176, i32 0)
  br label %187

187:                                              ; preds = %186, %185
  %188 = tail call i8* @DohGetfile(i8* %0)
  %189 = tail call i32 @DohGetline(i8* %0)
  %190 = tail call i8* @DohGetfile(i8* %131)
  %191 = tail call i32 @DohGetline(i8* %131)
  %192 = tail call i32 (i8*, i8*, ...) @DohPrintf(i8* %139, i8* getelementptr inbounds ([19 x i8], [19 x i8]* @.str.51, i64 0, i64 0), i8* %188, i32 %189, i8* %140, i8* %190, i32 %191, i8* %141)
  %193 = tail call i32 @DohSetattr(i8* %0, i8* getelementptr inbounds ([6 x i8], [6 x i8]* @.str.52, i64 0, i64 0), i8* %139)
  tail call void @DohDelete(i8* %139)
  tail call void @DohDelete(i8* %140)
  tail call void @DohDelete(i8* %141)
  br label %194

194:                                              ; preds = %187, %136, %130, %107, %83
  tail call void @DohDelete(i8* nonnull %80)
  br label %195

195:                                              ; preds = %194, %73, %61, %1
  ret void
}

declare i8* @Swig_symbol_global_scope() local_unnamed_addr #1

; Function Attrs: ssp uwtable
define internal fastcc i8* @_ZL13create_insertPvb(i8* %0, i1 zeroext %1) unnamed_addr #0 {
  %3 = tail call i8* @DohGetattr(i8* %0, i8* getelementptr inbounds ([5 x i8], [5 x i8]* @.str.55, i64 0, i64 0))
  %4 = tail call i32 @DohInsertitem(i8* %3, i32 -1, i8* getelementptr inbounds ([2 x i8], [2 x i8]* @.str.56, i64 0, i64 0))
  br i1 %1, label %5, label %11

5:                                                ; preds = %2
  %6 = tail call i8* @DohGetattr(i8* %0, i8* getelementptr inbounds ([5 x i8], [5 x i8]* @.str.6, i64 0, i64 0))
  %7 = tail call i32 @DohInsertitem(i8* %3, i32 -1, i8* %6)
  %8 = tail call i32 @DohInsertitem(i8* %3, i32 -1, i8* getelementptr inbounds ([2 x i8], [2 x i8]* @.str.56, i64 0, i64 0))
  %9 = tail call i8* @DohGetattr(i8* %0, i8* getelementptr inbounds ([5 x i8], [5 x i8]* @.str.31, i64 0, i64 0))
  %10 = tail call i32 @DohInsertitem(i8* %3, i32 -1, i8* %9)
  br label %18

11:                                               ; preds = %2
  %12 = tail call i8* @DohGetattr(i8* %0, i8* getelementptr inbounds ([5 x i8], [5 x i8]* @.str.31, i64 0, i64 0))
  %13 = tail call i32 @DohInsertitem(i8* %3, i32 -1, i8* %12)
  %14 = tail call i32 @DohInsertitem(i8* %3, i32 -1, i8* getelementptr inbounds ([9 x i8], [9 x i8]* @.str.57, i64 0, i64 0))
  %15 = tail call i32 @DohInsertitem(i8* %3, i32 -2, i8* getelementptr inbounds ([2 x i8], [2 x i8]* @.str.56, i64 0, i64 0))
  %16 = tail call i8* @DohGetattr(i8* %0, i8* getelementptr inbounds ([7 x i8], [7 x i8]* @.str.7, i64 0, i64 0))
  %17 = tail call i32 @DohInsertitem(i8* %3, i32 -2, i8* %16)
  br label %18

18:                                               ; preds = %11, %5
  %19 = tail call i32 @DohInsertitem(i8* %3, i32 -2, i8* getelementptr inbounds ([2 x i8], [2 x i8]* @.str.58, i64 0, i64 0))
  %20 = tail call i8* @DohData(i8* %3)
  %21 = load i8, i8* %20, align 1, !tbaa !8
  %22 = icmp eq i8 %21, 0
  br i1 %22, label %59, label %23

23:                                               ; preds = %18
  br label %24

24:                                               ; preds = %53, %23
  %25 = phi i8 [ %56, %53 ], [ %21, %23 ]
  %26 = phi i8* [ %55, %53 ], [ %20, %23 ]
  %27 = phi i32 [ %54, %53 ], [ 0, %23 ]
  switch i32 %27, label %53 [
    i32 0, label %28
    i32 1, label %33
    i32 2, label %36
    i32 3, label %39
    i32 4, label %44
    i32 5, label %49
    i32 6, label %52
  ]

28:                                               ; preds = %24
  %29 = icmp eq i8 %25, 47
  %30 = select i1 %29, i32 4, i32 0
  %31 = icmp eq i8 %25, 34
  %32 = select i1 %31, i32 3, i32 %30
  br label %53

33:                                               ; preds = %24
  %34 = icmp eq i8 %25, 42
  %35 = select i1 %34, i32 5, i32 1
  store i8 32, i8* %26, align 1, !tbaa !8
  br label %53

36:                                               ; preds = %24
  %37 = icmp eq i8 %25, 10
  br i1 %37, label %53, label %38

38:                                               ; preds = %36
  store i8 32, i8* %26, align 1, !tbaa !8
  br label %53

39:                                               ; preds = %24
  %40 = icmp eq i8 %25, 92
  %41 = select i1 %40, i32 6, i32 3
  %42 = icmp eq i8 %25, 34
  %43 = select i1 %42, i32 0, i32 %41
  br label %53

44:                                               ; preds = %24
  switch i8 %25, label %53 [
    i8 47, label %45
    i8 42, label %47
  ]

45:                                               ; preds = %44
  %46 = getelementptr inbounds i8, i8* %26, i64 -1
  store i8 32, i8* %46, align 1, !tbaa !8
  store i8 32, i8* %26, align 1, !tbaa !8
  br label %53

47:                                               ; preds = %44
  %48 = getelementptr inbounds i8, i8* %26, i64 -1
  store i8 32, i8* %48, align 1, !tbaa !8
  store i8 32, i8* %26, align 1, !tbaa !8
  br label %53

49:                                               ; preds = %24
  %50 = icmp ne i8 %25, 47
  %51 = zext i1 %50 to i32
  store i8 32, i8* %26, align 1, !tbaa !8
  br label %53

52:                                               ; preds = %24
  br label %53

53:                                               ; preds = %52, %49, %47, %45, %44, %39, %38, %36, %33, %28, %24
  %54 = phi i32 [ %27, %24 ], [ 3, %52 ], [ %51, %49 ], [ 2, %45 ], [ 1, %47 ], [ 2, %38 ], [ %35, %33 ], [ 0, %36 ], [ 0, %44 ], [ %32, %28 ], [ %43, %39 ]
  %55 = getelementptr inbounds i8, i8* %26, i64 1
  %56 = load i8, i8* %55, align 1, !tbaa !8
  %57 = icmp eq i8 %56, 0
  br i1 %57, label %58, label %24

58:                                               ; preds = %53
  br label %59

59:                                               ; preds = %58, %18
  br i1 %1, label %103, label %60

60:                                               ; preds = %59
  %61 = tail call i8* @DohData(i8* %3)
  %62 = icmp eq i8* %61, null
  br i1 %62, label %95, label %63

63:                                               ; preds = %60
  %64 = tail call i8* @strstr(i8* nonnull %61, i8* getelementptr inbounds ([7 x i8], [7 x i8]* @.str.59, i64 0, i64 0))
  %65 = icmp eq i8* %64, null
  br i1 %65, label %95, label %66

66:                                               ; preds = %63
  br label %73

67:                                               ; preds = %90
  %68 = icmp eq i8* %77, null
  br i1 %68, label %94, label %69

69:                                               ; preds = %79, %73, %67
  %70 = phi i8* [ %77, %67 ], [ %76, %73 ], [ %76, %79 ]
  %71 = tail call i8* @strstr(i8* nonnull %70, i8* getelementptr inbounds ([7 x i8], [7 x i8]* @.str.59, i64 0, i64 0))
  %72 = icmp eq i8* %71, null
  br i1 %72, label %94, label %73

73:                                               ; preds = %69, %66
  %74 = phi i8* [ %71, %69 ], [ %64, %66 ]
  %75 = ptrtoint i8* %74 to i64
  %76 = getelementptr inbounds i8, i8* %74, i64 6
  %77 = tail call i8* @strchr(i8* %76, i32 123)
  %78 = icmp eq i8* %77, null
  br i1 %78, label %69, label %79

79:                                               ; preds = %73
  %80 = tail call i8* @strchr(i8* %76, i32 59)
  %81 = icmp eq i8* %80, null
  %82 = icmp uge i8* %80, %77
  %83 = or i1 %82, %81
  %84 = icmp ult i8* %76, %77
  %85 = and i1 %83, %84
  br i1 %85, label %86, label %69

86:                                               ; preds = %79
  %87 = sub i64 -6, %75
  %88 = getelementptr i8, i8* %77, i64 %87
  %89 = ptrtoint i8* %88 to i64
  call void @llvm.memset.p0i8.i64(i8* align 1 %76, i8 32, i64 %89, i1 false)
  br label %90

90:                                               ; preds = %90, %86
  %91 = phi i8* [ %92, %90 ], [ %76, %86 ]
  %92 = getelementptr inbounds i8, i8* %91, i64 1
  %93 = icmp eq i8* %92, %77
  br i1 %93, label %67, label %90

94:                                               ; preds = %69, %67
  br label %95

95:                                               ; preds = %94, %63, %60
  %96 = tail call i8* @DohData(i8* %3)
  %97 = icmp eq i8* %96, null
  br i1 %97, label %163, label %98

98:                                               ; preds = %95
  %99 = tail call i8* @strstr(i8* nonnull %96, i8* getelementptr inbounds ([6 x i8], [6 x i8]* @.str.60, i64 0, i64 0))
  %100 = icmp eq i8* %99, null
  br i1 %100, label %163, label %101

101:                                              ; preds = %98
  br label %135

102:                                              ; preds = %193, %191
  br label %103

103:                                              ; preds = %166, %163, %102, %59
  %104 = tail call i8* @DohData(i8* %3)
  %105 = icmp eq i8* %104, null
  br i1 %105, label %127, label %106

106:                                              ; preds = %103
  %107 = tail call i8* @strstr(i8* nonnull %104, i8* getelementptr inbounds ([10 x i8], [10 x i8]* @.str.61, i64 0, i64 0))
  %108 = icmp eq i8* %107, null
  br i1 %108, label %127, label %109

109:                                              ; preds = %106
  br label %110

110:                                              ; preds = %118, %109
  %111 = phi i8* [ %120, %118 ], [ %107, %109 ]
  %112 = tail call i8* @strchr(i8* nonnull %111, i32 59)
  %113 = icmp eq i8* %112, null
  %114 = icmp ugt i8* %111, %112
  %115 = or i1 %113, %114
  br i1 %115, label %118, label %116

116:                                              ; preds = %110
  br label %122

117:                                              ; preds = %122
  br label %118

118:                                              ; preds = %117, %110
  %119 = phi i8* [ %111, %110 ], [ %124, %117 ]
  %120 = tail call i8* @strstr(i8* nonnull %119, i8* getelementptr inbounds ([10 x i8], [10 x i8]* @.str.61, i64 0, i64 0))
  %121 = icmp eq i8* %120, null
  br i1 %121, label %126, label %110

122:                                              ; preds = %122, %116
  %123 = phi i8* [ %124, %122 ], [ %111, %116 ]
  %124 = getelementptr inbounds i8, i8* %123, i64 1
  store i8 32, i8* %123, align 1, !tbaa !8
  %125 = icmp ugt i8* %124, %112
  br i1 %125, label %117, label %122

126:                                              ; preds = %118
  br label %127

127:                                              ; preds = %126, %106, %103
  %128 = tail call i8* @DohNewHash()
  %129 = tail call i32 @DohSetattr(i8* %128, i8* getelementptr inbounds ([9 x i8], [9 x i8]* @.str.19, i64 0, i64 0), i8* getelementptr inbounds ([7 x i8], [7 x i8]* @.str.62, i64 0, i64 0))
  %130 = tail call i8* @DohGetfile(i8* %0)
  tail call void @DohSetfile(i8* %128, i8* %130)
  %131 = tail call i32 @DohGetline(i8* %0)
  tail call void @DohSetline(i8* %128, i32 %131)
  %132 = tail call i8* @DohNewStringEmpty()
  tail call void @Wrapper_pretty_print(i8* %3, i8* %132)
  %133 = tail call i32 @DohSetattr(i8* %128, i8* getelementptr inbounds ([5 x i8], [5 x i8]* @.str.55, i64 0, i64 0), i8* %132)
  tail call void @DohDelete(i8* %132)
  %134 = tail call i32 @DohDelattr(i8* %0, i8* getelementptr inbounds ([5 x i8], [5 x i8]* @.str.55, i64 0, i64 0))
  ret i8* %128

135:                                              ; preds = %158, %101
  %136 = phi i8* [ %160, %158 ], [ %99, %101 ]
  %137 = ptrtoint i8* %136 to i64
  %138 = getelementptr inbounds i8, i8* %136, i64 5
  %139 = tail call i8* @strchr(i8* %138, i32 123)
  %140 = icmp eq i8* %139, null
  br i1 %140, label %158, label %141

141:                                              ; preds = %135
  %142 = tail call i8* @strchr(i8* %138, i32 59)
  %143 = icmp eq i8* %142, null
  %144 = icmp uge i8* %142, %139
  %145 = or i1 %144, %143
  %146 = icmp ult i8* %138, %139
  %147 = and i1 %145, %146
  br i1 %147, label %148, label %158

148:                                              ; preds = %141
  %149 = sub i64 -5, %137
  %150 = getelementptr i8, i8* %139, i64 %149
  %151 = ptrtoint i8* %150 to i64
  call void @llvm.memset.p0i8.i64(i8* align 1 %138, i8 32, i64 %151, i1 false)
  br label %152

152:                                              ; preds = %152, %148
  %153 = phi i8* [ %154, %152 ], [ %138, %148 ]
  %154 = getelementptr inbounds i8, i8* %153, i64 1
  %155 = icmp eq i8* %154, %139
  br i1 %155, label %156, label %152

156:                                              ; preds = %152
  %157 = icmp eq i8* %139, null
  br i1 %157, label %162, label %158

158:                                              ; preds = %156, %141, %135
  %159 = phi i8* [ %139, %156 ], [ %138, %135 ], [ %138, %141 ]
  %160 = tail call i8* @strstr(i8* nonnull %159, i8* getelementptr inbounds ([6 x i8], [6 x i8]* @.str.60, i64 0, i64 0))
  %161 = icmp eq i8* %160, null
  br i1 %161, label %162, label %135

162:                                              ; preds = %158, %156
  br label %163

163:                                              ; preds = %162, %98, %95
  %164 = tail call i8* @DohData(i8* %3)
  %165 = icmp eq i8* %164, null
  br i1 %165, label %103, label %166

166:                                              ; preds = %163
  %167 = tail call i8* @strstr(i8* nonnull %164, i8* getelementptr inbounds ([6 x i8], [6 x i8]* @.str.22, i64 0, i64 0))
  %168 = icmp eq i8* %167, null
  br i1 %168, label %103, label %169

169:                                              ; preds = %166
  br label %170

170:                                              ; preds = %193, %169
  %171 = phi i8* [ %195, %193 ], [ %167, %169 ]
  %172 = ptrtoint i8* %171 to i64
  %173 = getelementptr inbounds i8, i8* %171, i64 5
  %174 = tail call i8* @strchr(i8* %173, i32 123)
  %175 = icmp eq i8* %174, null
  br i1 %175, label %193, label %176

176:                                              ; preds = %170
  %177 = tail call i8* @strchr(i8* %173, i32 59)
  %178 = icmp eq i8* %177, null
  %179 = icmp uge i8* %177, %174
  %180 = or i1 %179, %178
  %181 = icmp ult i8* %173, %174
  %182 = and i1 %180, %181
  br i1 %182, label %183, label %193

183:                                              ; preds = %176
  %184 = sub i64 -5, %172
  %185 = getelementptr i8, i8* %174, i64 %184
  %186 = ptrtoint i8* %185 to i64
  call void @llvm.memset.p0i8.i64(i8* align 1 %173, i8 32, i64 %186, i1 false)
  br label %187

187:                                              ; preds = %187, %183
  %188 = phi i8* [ %189, %187 ], [ %173, %183 ]
  %189 = getelementptr inbounds i8, i8* %188, i64 1
  %190 = icmp eq i8* %189, %174
  br i1 %190, label %191, label %187

191:                                              ; preds = %187
  %192 = icmp eq i8* %174, null
  br i1 %192, label %102, label %193

193:                                              ; preds = %191, %176, %170
  %194 = phi i8* [ %174, %191 ], [ %173, %170 ], [ %173, %176 ]
  %195 = tail call i8* @strstr(i8* nonnull %194, i8* getelementptr inbounds ([6 x i8], [6 x i8]* @.str.22, i64 0, i64 0))
  %196 = icmp eq i8* %195, null
  br i1 %196, label %102, label %170
}

; Function Attrs: ssp uwtable
define internal fastcc void @_ZL15insertNodeAfterPvS_(i8* %0, i8* %1) unnamed_addr #0 {
  %3 = tail call i8* @DohGetattr(i8* %0, i8* getelementptr inbounds ([11 x i8], [11 x i8]* @.str.21, i64 0, i64 0))
  %4 = tail call i32 @DohSetattr(i8* %1, i8* getelementptr inbounds ([11 x i8], [11 x i8]* @.str.21, i64 0, i64 0), i8* %3)
  %5 = tail call i8* @DohGetattr(i8* %0, i8* getelementptr inbounds ([12 x i8], [12 x i8]* @.str.2, i64 0, i64 0))
  %6 = tail call i8* @DohGetattr(i8* %1, i8* getelementptr inbounds ([13 x i8], [13 x i8]* @.str.4, i64 0, i64 0))
  %7 = icmp ne i8* %6, null
  %8 = icmp ne i8* %5, null
  %9 = and i1 %8, %7
  br i1 %9, label %10, label %19

10:                                               ; preds = %2
  br label %11

11:                                               ; preds = %16, %10
  %12 = phi i8* [ %17, %16 ], [ %5, %10 ]
  %13 = phi i8* [ %12, %16 ], [ %0, %10 ]
  %14 = tail call i8* @DohGetattr(i8* nonnull %12, i8* getelementptr inbounds ([13 x i8], [13 x i8]* @.str.4, i64 0, i64 0))
  %15 = icmp eq i8* %6, %14
  br i1 %15, label %16, label %25

16:                                               ; preds = %11
  %17 = tail call i8* @DohGetattr(i8* nonnull %12, i8* getelementptr inbounds ([12 x i8], [12 x i8]* @.str.2, i64 0, i64 0))
  %18 = icmp eq i8* %17, null
  br i1 %18, label %21, label %11

19:                                               ; preds = %2
  %20 = icmp eq i8* %5, null
  br i1 %20, label %22, label %26

21:                                               ; preds = %16
  br label %22

22:                                               ; preds = %21, %19
  %23 = phi i8* [ %0, %19 ], [ %12, %21 ]
  %24 = tail call i32 @DohSetattr(i8* %3, i8* getelementptr inbounds ([10 x i8], [10 x i8]* @.str.63, i64 0, i64 0), i8* %1)
  br label %31

25:                                               ; preds = %11
  br label %26

26:                                               ; preds = %25, %19
  %27 = phi i8* [ %0, %19 ], [ %13, %25 ]
  %28 = phi i8* [ %5, %19 ], [ %12, %25 ]
  %29 = tail call i32 @DohSetattr(i8* %1, i8* getelementptr inbounds ([12 x i8], [12 x i8]* @.str.2, i64 0, i64 0), i8* nonnull %28)
  %30 = tail call i32 @DohSetattr(i8* nonnull %28, i8* getelementptr inbounds ([16 x i8], [16 x i8]* @.str.64, i64 0, i64 0), i8* %1)
  br label %31

31:                                               ; preds = %26, %22
  %32 = phi i8* [ %27, %26 ], [ %23, %22 ]
  %33 = tail call i32 @DohSetattr(i8* %32, i8* getelementptr inbounds ([12 x i8], [12 x i8]* @.str.2, i64 0, i64 0), i8* %1)
  %34 = tail call i32 @DohSetattr(i8* %1, i8* getelementptr inbounds ([16 x i8], [16 x i8]* @.str.64, i64 0, i64 0), i8* %32)
  ret void
}

declare void @removeNode(i8*) local_unnamed_addr #1

; Function Attrs: ssp uwtable
define void @_Z27Swig_nested_process_classesPv(i8* %0) local_unnamed_addr #0 {
  %2 = icmp eq i8* %0, null
  br i1 %2, label %47, label %3

3:                                                ; preds = %1
  %4 = tail call i8* @DohGetattr(i8* nonnull %0, i8* getelementptr inbounds ([11 x i8], [11 x i8]* @.str.1, i64 0, i64 0))
  %5 = icmp eq i8* %4, null
  br i1 %5, label %46, label %6

6:                                                ; preds = %3
  br label %7

7:                                                ; preds = %12, %6
  %8 = phi i8* [ %9, %12 ], [ %4, %6 ]
  %9 = tail call i8* @DohGetattr(i8* nonnull %8, i8* getelementptr inbounds ([12 x i8], [12 x i8]* @.str.2, i64 0, i64 0))
  %10 = tail call i8* @DohGetattr(i8* nonnull %8, i8* getelementptr inbounds ([13 x i8], [13 x i8]* @.str.14, i64 0, i64 0))
  %11 = icmp eq i8* %10, null
  br i1 %11, label %14, label %12

12:                                               ; preds = %44, %7
  %13 = icmp eq i8* %9, null
  br i1 %13, label %45, label %7

14:                                               ; preds = %7
  %15 = tail call i32 @DohGetFlag(i8* nonnull %8, i8* getelementptr inbounds ([7 x i8], [7 x i8]* @.str.15, i64 0, i64 0))
  %16 = icmp eq i32 %15, 0
  br i1 %16, label %44, label %17

17:                                               ; preds = %14
  %18 = tail call i32 @DohGetFlag(i8* nonnull %8, i8* getelementptr inbounds ([19 x i8], [19 x i8]* @.str.16, i64 0, i64 0))
  %19 = icmp eq i32 %18, 0
  br i1 %19, label %20, label %28

20:                                               ; preds = %17
  %21 = tail call %class.Language* @_ZN8Language8instanceEv()
  %22 = bitcast %class.Language* %21 to i32 (%class.Language*)***
  %23 = load i32 (%class.Language*)**, i32 (%class.Language*)*** %22, align 8, !tbaa !9
  %24 = getelementptr inbounds i32 (%class.Language*)*, i32 (%class.Language*)** %23, i64 82
  %25 = load i32 (%class.Language*)*, i32 (%class.Language*)** %24, align 8
  %26 = tail call i32 %25(%class.Language* %21)
  %27 = icmp eq i32 %26, 0
  br i1 %27, label %28, label %44

28:                                               ; preds = %20, %17
  tail call void @removeNode(i8* nonnull %8)
  %29 = tail call i32 @checkAttribute(i8* nonnull %8, i8* getelementptr inbounds ([7 x i8], [7 x i8]* @.str.17, i64 0, i64 0), i8* getelementptr inbounds ([7 x i8], [7 x i8]* @.str.18, i64 0, i64 0))
  %30 = icmp eq i32 %29, 0
  br i1 %30, label %31, label %32

31:                                               ; preds = %28
  tail call void @DohSetFlag(i8* nonnull %8, i8* getelementptr inbounds ([15 x i8], [15 x i8]* @.str.13, i64 0, i64 0))
  br label %44

32:                                               ; preds = %28
  %33 = tail call i8* @DohGetattr(i8* nonnull %0, i8* getelementptr inbounds ([9 x i8], [9 x i8]* @.str.19, i64 0, i64 0))
  %34 = tail call i32 @DohStrcmp(i8* %33, i8* getelementptr inbounds ([7 x i8], [7 x i8]* @.str.20, i64 0, i64 0))
  %35 = icmp eq i32 %34, 0
  br i1 %35, label %36, label %43

36:                                               ; preds = %32
  %37 = tail call i8* @DohGetattr(i8* nonnull %0, i8* getelementptr inbounds ([11 x i8], [11 x i8]* @.str.21, i64 0, i64 0))
  %38 = tail call i8* @DohGetattr(i8* %37, i8* getelementptr inbounds ([9 x i8], [9 x i8]* @.str.19, i64 0, i64 0))
  %39 = tail call i32 @DohStrcmp(i8* %38, i8* getelementptr inbounds ([6 x i8], [6 x i8]* @.str.22, i64 0, i64 0))
  %40 = icmp eq i32 %39, 0
  br i1 %40, label %41, label %43

41:                                               ; preds = %36
  %42 = tail call i8* @DohGetattr(i8* nonnull %0, i8* getelementptr inbounds ([11 x i8], [11 x i8]* @.str.21, i64 0, i64 0))
  tail call fastcc void @_ZL15insertNodeAfterPvS_(i8* %42, i8* nonnull %8)
  br label %44

43:                                               ; preds = %36, %32
  tail call fastcc void @_ZL15insertNodeAfterPvS_(i8* nonnull %0, i8* nonnull %8)
  br label %44

44:                                               ; preds = %43, %41, %31, %20, %14
  tail call void @_Z27Swig_nested_process_classesPv(i8* nonnull %8)
  br label %12

45:                                               ; preds = %12
  br label %46

46:                                               ; preds = %45, %3
  tail call fastcc void @_ZL28remove_outer_class_referencePv(i8* nonnull %0)
  br label %47

47:                                               ; preds = %46, %1
  ret void
}

declare i32 @DohGetFlag(i8*, i8*) local_unnamed_addr #1

declare %class.Language* @_ZN8Language8instanceEv() local_unnamed_addr #1

declare i32 @checkAttribute(i8*, i8*, i8*) local_unnamed_addr #1

declare i32 @DohStrcmp(i8*, i8*) local_unnamed_addr #1

; Function Attrs: ssp uwtable
define internal fastcc void @_ZL28remove_outer_class_referencePv(i8* %0) unnamed_addr #0 {
  %2 = tail call i8* @DohGetattr(i8* %0, i8* getelementptr inbounds ([11 x i8], [11 x i8]* @.str.1, i64 0, i64 0))
  %3 = icmp eq i8* %2, null
  br i1 %3, label %6, label %4

4:                                                ; preds = %1
  br label %7

5:                                                ; preds = %21
  br label %6

6:                                                ; preds = %5, %1
  ret void

7:                                                ; preds = %21, %4
  %8 = phi i8* [ %22, %21 ], [ %2, %4 ]
  %9 = tail call i32 @DohGetFlag(i8* nonnull %8, i8* getelementptr inbounds ([19 x i8], [19 x i8]* @.str.16, i64 0, i64 0))
  %10 = icmp eq i32 %9, 0
  br i1 %10, label %11, label %19

11:                                               ; preds = %7
  %12 = tail call %class.Language* @_ZN8Language8instanceEv()
  %13 = bitcast %class.Language* %12 to i32 (%class.Language*)***
  %14 = load i32 (%class.Language*)**, i32 (%class.Language*)*** %13, align 8, !tbaa !9
  %15 = getelementptr inbounds i32 (%class.Language*)*, i32 (%class.Language*)** %14, i64 82
  %16 = load i32 (%class.Language*)*, i32 (%class.Language*)** %15, align 8
  %17 = tail call i32 %16(%class.Language* %12)
  %18 = icmp eq i32 %17, 0
  br i1 %18, label %19, label %21

19:                                               ; preds = %11, %7
  %20 = tail call i32 @DohDelattr(i8* nonnull %8, i8* getelementptr inbounds ([13 x i8], [13 x i8]* @.str.4, i64 0, i64 0))
  tail call fastcc void @_ZL28remove_outer_class_referencePv(i8* nonnull %8)
  br label %21

21:                                               ; preds = %19, %11
  %22 = tail call i8* @DohGetattr(i8* nonnull %8, i8* getelementptr inbounds ([12 x i8], [12 x i8]* @.str.2, i64 0, i64 0))
  %23 = icmp eq i8* %22, null
  br i1 %23, label %5, label %7
}

declare i32 @DohCmp(i8*, i8*) local_unnamed_addr #1

declare i32 @SwigType_isfunction(i8*) local_unnamed_addr #1

declare i32 @DohLen(i8*) local_unnamed_addr #1

declare void @SwigType_push(i8*, i8*) local_unnamed_addr #1

declare i32 @SwigType_ismutable(i8*) local_unnamed_addr #1

declare i32 @DohPrintf(i8*, i8*, ...) local_unnamed_addr #1

declare void @Swig_features_get(i8*, i8*, i8*, i8*, i8*) local_unnamed_addr #1

declare i8* @Swig_cparse_features() local_unnamed_addr #1

; Function Attrs: ssp uwtable
define internal fastcc i8* @_ZL9make_namePvS_S_(i8* %0, i8* %1, i8* %2) unnamed_addr #0 {
  %4 = icmp ne i8* %1, null
  br i1 %4, label %5, label %9

5:                                                ; preds = %3
  %6 = tail call i8* @DohData(i8* nonnull %1)
  %7 = load i8, i8* %6, align 1, !tbaa !8
  %8 = icmp eq i8 %7, 126
  br label %9

9:                                                ; preds = %5, %3
  %10 = phi i1 [ false, %3 ], [ %8, %5 ]
  %11 = tail call i8* @DohGetattr(i8* %0, i8* getelementptr inbounds ([13 x i8], [13 x i8]* @.str.53, i64 0, i64 0))
  %12 = icmp eq i8* %11, null
  br i1 %12, label %22, label %13

13:                                               ; preds = %9
  %14 = tail call i8* @DohNewString(i8* nonnull %11)
  %15 = tail call i32 @DohDelattr(i8* %0, i8* getelementptr inbounds ([13 x i8], [13 x i8]* @.str.53, i64 0, i64 0))
  br i1 %10, label %16, label %25

16:                                               ; preds = %13
  %17 = tail call i8* @DohData(i8* %14)
  %18 = load i8, i8* %17, align 1, !tbaa !8
  %19 = icmp eq i8 %18, 126
  br i1 %19, label %25, label %20

20:                                               ; preds = %16
  %21 = tail call i32 @DohInsertitem(i8* %14, i32 0, i8* getelementptr inbounds ([2 x i8], [2 x i8]* @.str.54, i64 0, i64 0))
  br label %25

22:                                               ; preds = %9
  br i1 %4, label %23, label %25

23:                                               ; preds = %22
  %24 = tail call i8* @Swig_name_make(i8* %0, i8* null, i8* nonnull %1, i8* %2, i8* null)
  br label %25

25:                                               ; preds = %23, %22, %20, %16, %13
  %26 = phi i8* [ %24, %23 ], [ null, %22 ], [ %14, %16 ], [ %14, %20 ], [ %14, %13 ]
  ret i8* %26
}

declare i8* @Swig_name_warning(i8*, i8*, i8*, i8*) local_unnamed_addr #1

declare i8* @SwigType_pop_function(i8*) local_unnamed_addr #1

declare i8* @Swig_symbol_add(i8*, i8*) local_unnamed_addr #1

; Function Attrs: nounwind readonly
declare i32 @strncmp(i8* nocapture, i8* nocapture, i64) local_unnamed_addr #2

declare i8* @DohData(i8*) local_unnamed_addr #1

; Function Attrs: nounwind readonly
declare i64 @strlen(i8* nocapture) local_unnamed_addr #2

declare void @Swig_warnfilter(i8*, i32) local_unnamed_addr #1

declare void @Swig_warning(i32, i8*, i32, i8*, ...) local_unnamed_addr #1

declare i8* @DohGetfile(i8*) local_unnamed_addr #1

declare i32 @DohGetline(i8*) local_unnamed_addr #1

declare i8* @DohGetmeta(i8*, i8*) local_unnamed_addr #1

declare i32 @DohSetmeta(i8*, i8*, i8*) local_unnamed_addr #1

declare i8* @DohNewStringEmpty() local_unnamed_addr #1

declare i32 @Swig_need_redefined_warn(i8*, i8*, i32) local_unnamed_addr #1

declare i8* @SwigType_namestr(i8*) local_unnamed_addr #1

declare i8* @DohNewString(i8*) local_unnamed_addr #1

declare i8* @Swig_name_make(i8*, i8*, i8*, i8*, i8*) local_unnamed_addr #1

declare i8* @DohNewHash() local_unnamed_addr #1

declare void @DohSetfile(i8*, i8*) local_unnamed_addr #1

declare void @DohSetline(i8*, i32) local_unnamed_addr #1

declare void @Wrapper_pretty_print(i8*, i8*) local_unnamed_addr #1

; Function Attrs: nounwind readonly
declare i8* @strstr(i8*, i8* nocapture) local_unnamed_addr #2

; Function Attrs: nounwind readonly
declare i8* @strchr(i8*, i32) local_unnamed_addr #2

; Function Attrs: argmemonly nounwind willreturn
declare void @llvm.memset.p0i8.i64(i8* nocapture writeonly, i8, i64, i1 immarg) #3


!llvm.module.flags = !{!0}
!llvm.ident = !{!1}

!0 = !{i32 7, !"PIC Level", i32 2}
!1 = !{!"Apple LLVM version 9.0.0 (clang-900.0.39.2)"}
!2 = !{!3, !3, i64 0}
!3 = !{!"any pointer", !4, i64 0}
!4 = !{!"omnipotent char", !5, i64 0}
!5 = !{!"Simple C++ TBAA"}
!6 = !{!7, !7, i64 0}
!7 = !{!"int", !4, i64 0}
!8 = !{!4, !4, i64 0}
!9 = !{!10, !10, i64 0}
!10 = !{!"vtable pointer", !5, i64 0}
